target datalayout = "e-m:e-p270:32:32-p271:32:32-p272:64:64-i64:64-i128:128-f80:128-n8:16:32:64-S128"
target triple = "x86_64-pc-linux-gnu"

%"class.grpc_core::RefCount" = type { %"struct.std::atomic" }
%"struct.std::atomic" = type { %"struct.std::__atomic_base" }
%"struct.std::__atomic_base" = type { i64 }
%"class.grpc_core::InternallyRefCounted" = type { %"class.grpc_core::Orphanable", %"class.grpc_core::RefCount" }
%"class.grpc_core::Orphanable" = type { ptr }
%"class.grpc_core::RefCountedPtr.176" = type { ptr }
%"class.grpc_core::RefCountedPtr.209" = type { ptr }
%"class.grpc_core::RefCountedPtr.212" = type { ptr }

; Function Attrs: alwaysinline mustprogress nounwind uwtable
define linkonce_odr noundef i64 @_ZNSt13__atomic_baseIlE9fetch_subElSt12memory_order(ptr noundef nonnull align 8 dereferenceable(8) %0, i64 noundef %1, i32 noundef %2) #14 comdat align 2 {
  %4 = alloca ptr, align 8
  %5 = alloca i64, align 8
  %6 = alloca i32, align 4
  %7 = alloca i64, align 8
  %8 = alloca i64, align 8
  store ptr %0, ptr %4, align 8, !tbaa !142
  store i64 %1, ptr %5, align 8, !tbaa !50
  store i32 %2, ptr %6, align 4, !tbaa !118
  %9 = load ptr, ptr %4, align 8
  %10 = getelementptr inbounds nuw %"struct.std::__atomic_base", ptr %9, i32 0, i32 0
  %11 = load i32, ptr %6, align 4, !tbaa !118
  %12 = load i64, ptr %5, align 8, !tbaa !50
  store i64 %12, ptr %7, align 8, !tbaa !50
  switch i32 %11, label %13 [
    i32 1, label %16
    i32 2, label %16
    i32 3, label %19
    i32 4, label %22
    i32 5, label %25
  ]

13:                                               ; preds = %3
  %14 = load i64, ptr %7, align 8
  %15 = atomicrmw sub ptr %10, i64 %14 monotonic, align 8
  store i64 %15, ptr %8, align 8
  br label %28

16:                                               ; preds = %3, %3
  %17 = load i64, ptr %7, align 8
  %18 = atomicrmw sub ptr %10, i64 %17 acquire, align 8
  store i64 %18, ptr %8, align 8
  br label %28

19:                                               ; preds = %3
  %20 = load i64, ptr %7, align 8
  %21 = atomicrmw sub ptr %10, i64 %20 release, align 8
  store i64 %21, ptr %8, align 8
  br label %28

22:                                               ; preds = %3
  %23 = load i64, ptr %7, align 8
  %24 = atomicrmw sub ptr %10, i64 %23 acq_rel, align 8
  store i64 %24, ptr %8, align 8
  br label %28

25:                                               ; preds = %3
  %26 = load i64, ptr %7, align 8
  %27 = atomicrmw sub ptr %10, i64 %26 seq_cst, align 8
  store i64 %27, ptr %8, align 8
  br label %28

28:                                               ; preds = %25, %22, %19, %16, %13
  %29 = load i64, ptr %8, align 8, !tbaa !50
  ret i64 %29
}

; Function Attrs: mustprogress nounwind uwtable
define linkonce_odr void @_ZNK9grpc_core11UnrefDeleteclINS_19LoadBalancingPolicyEEEvPT_(ptr noundef nonnull align 1 dereferenceable(1) %0, ptr noundef %1) #5 comdat align 2 {
  %3 = alloca ptr, align 8
  %4 = alloca ptr, align 8
  store ptr %0, ptr %3, align 8, !tbaa !139
  store ptr %1, ptr %4, align 8, !tbaa !326
  %5 = load ptr, ptr %4, align 8, !tbaa !326
  %6 = icmp eq ptr %5, null
  br i1 %6, label %11, label %7

7:                                                ; preds = %2
  %8 = load ptr, ptr %5, align 8, !tbaa !99
  %9 = getelementptr inbounds ptr, ptr %8, i64 2
  %10 = load ptr, ptr %9, align 8
  call void %10(ptr noundef nonnull align 8 dereferenceable(56) %5) #3
  br label %11

11:                                               ; preds = %7, %2
  ret void
}

; Function Attrs: mustprogress nounwind uwtable
define linkonce_odr noundef zeroext i1 @_ZN9grpc_core8RefCount5UnrefEv(ptr noundef nonnull align 8 dereferenceable(8) %0) #5 comdat align 2 {
  %2 = alloca ptr, align 8
  %3 = alloca i64, align 8
  store ptr %0, ptr %2, align 8, !tbaa !137
  %4 = load ptr, ptr %2, align 8
  call void @llvm.lifetime.start.p0(i64 8, ptr %3) #3
  %5 = getelementptr inbounds nuw %"class.grpc_core::RefCount", ptr %4, i32 0, i32 0
  %6 = call noundef i64 @_ZNSt13__atomic_baseIlE9fetch_subElSt12memory_order(ptr noundef nonnull align 8 dereferenceable(8) %5, i64 noundef 1, i32 noundef 4) #3
  store i64 %6, ptr %3, align 8, !tbaa !50
  %7 = load i64, ptr %3, align 8, !tbaa !50
  %8 = icmp eq i64 %7, 1
  call void @llvm.lifetime.end.p0(i64 8, ptr %3) #3
  ret i1 %8
}

; Function Attrs: mustprogress uwtable
define linkonce_odr void @_ZN9grpc_core20InternallyRefCountedINS_19LoadBalancingPolicyENS_11UnrefDeleteEE5UnrefEv(ptr noundef nonnull align 8 dereferenceable(16) %0) #4 comdat align 2 {
  %2 = alloca ptr, align 8
  store ptr %0, ptr %2, align 8, !tbaa !410
  %3 = load ptr, ptr %2, align 8
  %4 = getelementptr inbounds nuw %"class.grpc_core::InternallyRefCounted", ptr %3, i32 0, i32 1
  %5 = call noundef zeroext i1 @_ZN9grpc_core8RefCount5UnrefEv(ptr noundef nonnull align 8 dereferenceable(8) %4)
  %6 = zext i1 %5 to i64
  %7 = call i64 @llvm.expect.i64(i64 %6, i64 0)
  %8 = icmp ne i64 %7, 0
  br i1 %8, label %9, label %10

9:                                                ; preds = %1
  call void @_ZNK9grpc_core11UnrefDeleteclINS_19LoadBalancingPolicyEEEvPT_(ptr noundef nonnull align 1 dereferenceable(1) %3, ptr noundef %3)
  br label %10

10:                                               ; preds = %9, %1
  ret void
}

; Function Attrs: mustprogress nounwind uwtable
define internal void @_ZN9grpc_core13RefCountedPtrINS_12_GLOBAL__N_117XdsOverrideHostLbEED2Ev(ptr noundef nonnull align 8 dereferenceable(8) %0) unnamed_addr #5 align 2 personality ptr @__gxx_personality_v0 {
  %2 = alloca ptr, align 8
  store ptr %0, ptr %2, align 8, !tbaa !398
  %3 = load ptr, ptr %2, align 8
  %4 = getelementptr inbounds nuw %"class.grpc_core::RefCountedPtr.176", ptr %3, i32 0, i32 0
  %5 = load ptr, ptr %4, align 8, !tbaa !400
  %6 = icmp ne ptr %5, null
  br i1 %6, label %7, label %11

7:                                                ; preds = %1
  %8 = getelementptr inbounds nuw %"class.grpc_core::RefCountedPtr.176", ptr %3, i32 0, i32 0
  %9 = load ptr, ptr %8, align 8, !tbaa !400
  invoke void @_ZN9grpc_core20InternallyRefCountedINS_19LoadBalancingPolicyENS_11UnrefDeleteEE5UnrefEv(ptr noundef nonnull align 8 dereferenceable(16) %9)
          to label %10 unwind label %12

10:                                               ; preds = %7
  br label %11

11:                                               ; preds = %10, %1
  ret void

12:                                               ; preds = %7
  %13 = landingpad { ptr, i32 }
          catch ptr null
  %14 = extractvalue { ptr, i32 } %13, 0
  call void @__clang_call_terminate(ptr %14) #33
  unreachable
}

; Function Attrs: mustprogress nounwind uwtable
define internal void @_ZN9grpc_core13RefCountedPtrINS_12_GLOBAL__N_117XdsOverrideHostLb17SubchannelWrapperEEC2IS3_TnNSt9enable_ifIXsr3std14is_convertibleIPT_PS3_EE5valueEbE4typeELb1EEES8_(ptr noundef nonnull align 8 dereferenceable(8) %0, ptr noundef %1) unnamed_addr #5 align 2 {
  %3 = alloca ptr, align 8
  %4 = alloca ptr, align 8
  store ptr %0, ptr %3, align 8, !tbaa !449
  store ptr %1, ptr %4, align 8, !tbaa !549
  %5 = load ptr, ptr %3, align 8
  %6 = getelementptr inbounds nuw %"class.grpc_core::RefCountedPtr.209", ptr %5, i32 0, i32 0
  %7 = load ptr, ptr %4, align 8, !tbaa !549
  store ptr %7, ptr %6, align 8, !tbaa !451
  ret void
}

; Function Attrs: mustprogress nounwind uwtable
define internal void @_ZN9grpc_core13RefCountedPtrINS_12_GLOBAL__N_117XdsOverrideHostLbEEC2EOS3_(ptr noundef nonnull align 8 dereferenceable(8) %0, ptr noundef nonnull align 8 dereferenceable(8) %1) unnamed_addr #5 align 2 {
  %3 = alloca ptr, align 8
  %4 = alloca ptr, align 8
  store ptr %0, ptr %3, align 8, !tbaa !398
  store ptr %1, ptr %4, align 8, !tbaa !398
  %5 = load ptr, ptr %3, align 8
  %6 = getelementptr inbounds nuw %"class.grpc_core::RefCountedPtr.176", ptr %5, i32 0, i32 0
  store ptr null, ptr %6, align 8, !tbaa !400
  %7 = load ptr, ptr %4, align 8, !tbaa !398
  %8 = getelementptr inbounds nuw %"class.grpc_core::RefCountedPtr.176", ptr %7, i32 0, i32 0
  %9 = load ptr, ptr %8, align 8, !tbaa !400
  %10 = getelementptr inbounds nuw %"class.grpc_core::RefCountedPtr.176", ptr %5, i32 0, i32 0
  store ptr %9, ptr %10, align 8, !tbaa !400
  %11 = load ptr, ptr %4, align 8, !tbaa !398
  %12 = getelementptr inbounds nuw %"class.grpc_core::RefCountedPtr.176", ptr %11, i32 0, i32 0
  store ptr null, ptr %12, align 8, !tbaa !400
  ret void
}

; Function Attrs: mustprogress nounwind uwtable
define linkonce_odr void @_ZN9grpc_core13RefCountedPtrINS_19SubchannelInterfaceEEC2EOS2_(ptr noundef nonnull align 8 dereferenceable(8) %0, ptr noundef nonnull align 8 dereferenceable(8) %1) unnamed_addr #5 comdat align 2 {
  %3 = alloca ptr, align 8
  %4 = alloca ptr, align 8
  store ptr %0, ptr %3, align 8, !tbaa !606
  store ptr %1, ptr %4, align 8, !tbaa !606
  %5 = load ptr, ptr %3, align 8
  %6 = getelementptr inbounds nuw %"class.grpc_core::RefCountedPtr.212", ptr %5, i32 0, i32 0
  store ptr null, ptr %6, align 8, !tbaa !608
  %7 = load ptr, ptr %4, align 8, !tbaa !606
  %8 = getelementptr inbounds nuw %"class.grpc_core::RefCountedPtr.212", ptr %7, i32 0, i32 0
  %9 = load ptr, ptr %8, align 8, !tbaa !608
  %10 = getelementptr inbounds nuw %"class.grpc_core::RefCountedPtr.212", ptr %5, i32 0, i32 0
  store ptr %9, ptr %10, align 8, !tbaa !608
  %11 = load ptr, ptr %4, align 8, !tbaa !606
  %12 = getelementptr inbounds nuw %"class.grpc_core::RefCountedPtr.212", ptr %11, i32 0, i32 0
  store ptr null, ptr %12, align 8, !tbaa !608
  ret void
}

; Function Attrs: inlinehint mustprogress uwtable
define internal void @_ZN9grpc_core14MakeRefCountedINS_12_GLOBAL__N_117XdsOverrideHostLb17SubchannelWrapperEJNS_13RefCountedPtrINS_19SubchannelInterfaceEEENS4_IS2_EEEEENS4_IT_EEDpOT0_(ptr dead_on_unwind noalias writable sret(%"class.grpc_core::RefCountedPtr.209") align 8 %0, ptr noundef nonnull align 8 dereferenceable(8) %1, ptr noundef nonnull align 8 dereferenceable(8) %2) #7 personality ptr @__gxx_personality_v0 {
  %4 = alloca ptr, align 8
  %5 = alloca ptr, align 8
  %6 = alloca ptr, align 8
  %7 = alloca %"class.grpc_core::RefCountedPtr.212", align 8
  %8 = alloca %"class.grpc_core::RefCountedPtr.176", align 8
  %9 = alloca ptr, align 8
  %10 = alloca i32, align 4
  %11 = alloca i1, align 1
  store ptr %0, ptr %4, align 8
  store ptr %1, ptr %5, align 8, !tbaa !606
  store ptr %2, ptr %6, align 8, !tbaa !398
  %12 = call noalias noundef nonnull ptr @_Znwm(i64 noundef 96) #32
  store i1 true, ptr %11, align 1
  %13 = load ptr, ptr %5, align 8, !tbaa !606
  call void @_ZN9grpc_core13RefCountedPtrINS_19SubchannelInterfaceEEC2EOS2_(ptr noundef nonnull align 8 dereferenceable(8) %7, ptr noundef nonnull align 8 dereferenceable(8) %13) #3
  %14 = load ptr, ptr %6, align 8, !tbaa !398
  call void @_ZN9grpc_core13RefCountedPtrINS_12_GLOBAL__N_117XdsOverrideHostLbEEC2EOS3_(ptr noundef nonnull align 8 dereferenceable(8) %8, ptr noundef nonnull align 8 dereferenceable(8) %14) #3
  invoke void @_ZN9grpc_core12_GLOBAL__N_117XdsOverrideHostLb17SubchannelWrapperC2ENS_13RefCountedPtrINS_19SubchannelInterfaceEEENS3_IS1_EE(ptr noundef nonnull align 8 dereferenceable(96) %12, ptr noundef %7, ptr noundef %8)
          to label %15 unwind label %17

15:                                               ; preds = %3
  store i1 false, ptr %11, align 1
  invoke void @_ZN9grpc_core13RefCountedPtrINS_12_GLOBAL__N_117XdsOverrideHostLb17SubchannelWrapperEEC2IS3_TnNSt9enable_ifIXsr3std14is_convertibleIPT_PS3_EE5valueEbE4typeELb1EEES8_(ptr noundef nonnull align 8 dereferenceable(8) %0, ptr noundef %12)
          to label %16 unwind label %17

16:                                               ; preds = %15
  call void @_ZN9grpc_core13RefCountedPtrINS_12_GLOBAL__N_117XdsOverrideHostLbEED2Ev(ptr noundef nonnull align 8 dereferenceable(8) %8) #3
  call void @_ZN9grpc_core13RefCountedPtrINS_19SubchannelInterfaceEED2Ev(ptr noundef nonnull align 8 dereferenceable(8) %7) #3
  ret void

17:                                               ; preds = %15, %3
  %18 = landingpad { ptr, i32 }
          cleanup
  %19 = extractvalue { ptr, i32 } %18, 0
  store ptr %19, ptr %9, align 8
  %20 = extractvalue { ptr, i32 } %18, 1
  store i32 %20, ptr %10, align 4
  call void @_ZN9grpc_core13RefCountedPtrINS_12_GLOBAL__N_117XdsOverrideHostLbEED2Ev(ptr noundef nonnull align 8 dereferenceable(8) %8) #3
  call void @_ZN9grpc_core13RefCountedPtrINS_19SubchannelInterfaceEED2Ev(ptr noundef nonnull align 8 dereferenceable(8) %7) #3
  %21 = load i1, ptr %11, align 1
  br i1 %21, label %22, label %23

22:                                               ; preds = %17
  call void @_ZdlPvm(ptr noundef %12, i64 noundef 96) #34
  br label %23

23:                                               ; preds = %22, %17
  br label %24

24:                                               ; preds = %23
  %25 = load ptr, ptr %9, align 8
  %26 = load i32, ptr %10, align 4
  %27 = insertvalue { ptr, i32 } poison, ptr %25, 0
  %28 = insertvalue { ptr, i32 } %27, i32 %26, 1
  resume { ptr, i32 } %28
}