; Function Attrs: inlinehint mustprogress uwtable
define internal fastcc void @_ZN9grpc_core14MakeRefCountedINS_12_GLOBAL__N_117XdsOverrideHostLb17SubchannelWrapperEJNS_13RefCountedPtrINS_19SubchannelInterfaceEEENS4_IS2_EEEEENS4_IT_EEDpOT0_(ptr dead_on_unwind noalias nonnull writable writeonly align 8 captures(none) %0, ptr noundef nonnull align 8 captures(none) dereferenceable(8) %1, ptr noundef nonnull align 8 captures(none) dereferenceable(8) %2) unnamed_addr #29 personality ptr @__gxx_personality_v0 {
  %4 = alloca %"class.grpc_core::RefCountedPtr.212", align 8
  %5 = alloca %"class.grpc_core::RefCountedPtr.176", align 8
  %6 = tail call noalias noundef nonnull dereferenceable(96) ptr @_Znwm(i64 noundef 96) #39
  %7 = load ptr, ptr %1, align 8, !tbaa !278
  store ptr %7, ptr %4, align 8, !tbaa !278
  store ptr null, ptr %1, align 8, !tbaa !278
  %8 = load ptr, ptr %2, align 8, !tbaa !170
  store ptr %8, ptr %5, align 8, !tbaa !170
  store ptr null, ptr %2, align 8, !tbaa !170
  invoke fastcc void @_ZN9grpc_core12_GLOBAL__N_117XdsOverrideHostLb17SubchannelWrapperC2ENS_13RefCountedPtrINS_19SubchannelInterfaceEEENS3_IS1_EE(ptr noundef nonnull align 8 dereferenceable(96) %6, ptr noundef %4, ptr noundef %5)
          to label %9 unwind label %36

9:                                                ; preds = %3
  store ptr %6, ptr %0, align 8, !tbaa !203
  %.val4 = load ptr, ptr %5, align 8, !tbaa !170
  %.not.i = icmp eq ptr %.val4, null
  br i1 %.not.i, label %_ZN9grpc_core13RefCountedPtrINS_12_GLOBAL__N_117XdsOverrideHostLbEED2Ev.exit, label %10

10:                                               ; preds = %9
  %11 = getelementptr inbounds nuw i8, ptr %.val4, i64 8
  %12 = atomicrmw sub ptr %11, i64 1 acq_rel, align 8
  %13 = icmp eq i64 %12, 1
  br i1 %13, label %14, label %_ZN9grpc_core13RefCountedPtrINS_12_GLOBAL__N_117XdsOverrideHostLbEED2Ev.exit, !prof !47

14:                                               ; preds = %10
  %15 = load ptr, ptr %.val4, align 8, !tbaa !6
  %16 = getelementptr inbounds nuw i8, ptr %15, i64 16
  %17 = load ptr, ptr %16, align 8
  tail call void %17(ptr noundef nonnull align 8 dereferenceable(56) %.val4) #40
  br label %_ZN9grpc_core13RefCountedPtrINS_12_GLOBAL__N_117XdsOverrideHostLbEED2Ev.exit

_ZN9grpc_core13RefCountedPtrINS_12_GLOBAL__N_117XdsOverrideHostLbEED2Ev.exit: ; preds = %9, %10, %14
  %18 = load ptr, ptr %4, align 8, !tbaa !278
  %.not.i5 = icmp eq ptr %18, null
  br i1 %.not.i5, label %_ZN9grpc_core13RefCountedPtrINS_19SubchannelInterfaceEED2Ev.exit, label %19

19:                                               ; preds = %_ZN9grpc_core13RefCountedPtrINS_12_GLOBAL__N_117XdsOverrideHostLbEED2Ev.exit
  %20 = getelementptr inbounds nuw i8, ptr %18, i64 8
  %21 = atomicrmw add ptr %20, i64 -4294967295 acq_rel, align 8
  %.mask.i.i = and i64 %21, -4294967296
  %22 = icmp eq i64 %.mask.i.i, 4294967296
  br i1 %22, label %23, label %.noexc.i, !prof !47

23:                                               ; preds = %19
  %24 = load ptr, ptr %18, align 8, !tbaa !6
  %25 = getelementptr inbounds nuw i8, ptr %24, i64 16
  %26 = load ptr, ptr %25, align 8
  invoke void %26(ptr noundef nonnull align 8 dereferenceable(16) %18)
          to label %.noexc.i unwind label %33

.noexc.i:                                         ; preds = %23, %19
  %27 = atomicrmw sub ptr %20, i64 1 acq_rel, align 8
  %28 = icmp eq i64 %27, 1
  br i1 %28, label %29, label %_ZN9grpc_core13RefCountedPtrINS_19SubchannelInterfaceEED2Ev.exit, !prof !47

29:                                               ; preds = %.noexc.i
  %30 = load ptr, ptr %18, align 8, !tbaa !6
  %31 = getelementptr inbounds nuw i8, ptr %30, i64 8
  %32 = load ptr, ptr %31, align 8
  tail call void %32(ptr noundef nonnull align 8 dereferenceable(16) %18) #40
  br label %_ZN9grpc_core13RefCountedPtrINS_19SubchannelInterfaceEED2Ev.exit

33:                                               ; preds = %23
  %34 = landingpad { ptr, i32 }
          catch ptr null
  %35 = extractvalue { ptr, i32 } %34, 0
  tail call void @__clang_call_terminate(ptr %35) #42
  unreachable

_ZN9grpc_core13RefCountedPtrINS_19SubchannelInterfaceEED2Ev.exit: ; preds = %_ZN9grpc_core13RefCountedPtrINS_12_GLOBAL__N_117XdsOverrideHostLbEED2Ev.exit, %.noexc.i, %29
  ret void

36:                                               ; preds = %3
  %37 = landingpad { ptr, i32 }
          cleanup
  %.val = load ptr, ptr %5, align 8, !tbaa !170
  %.not.i6 = icmp eq ptr %.val, null
  br i1 %.not.i6, label %_ZN9grpc_core13RefCountedPtrINS_12_GLOBAL__N_117XdsOverrideHostLbEED2Ev.exit7, label %38

38:                                               ; preds = %36
  %39 = getelementptr inbounds nuw i8, ptr %.val, i64 8
  %40 = atomicrmw sub ptr %39, i64 1 acq_rel, align 8
  %41 = icmp eq i64 %40, 1
  br i1 %41, label %42, label %_ZN9grpc_core13RefCountedPtrINS_12_GLOBAL__N_117XdsOverrideHostLbEED2Ev.exit7, !prof !47

42:                                               ; preds = %38
  %43 = load ptr, ptr %.val, align 8, !tbaa !6
  %44 = getelementptr inbounds nuw i8, ptr %43, i64 16
  %45 = load ptr, ptr %44, align 8
  tail call void %45(ptr noundef nonnull align 8 dereferenceable(56) %.val) #40
  br label %_ZN9grpc_core13RefCountedPtrINS_12_GLOBAL__N_117XdsOverrideHostLbEED2Ev.exit7

_ZN9grpc_core13RefCountedPtrINS_12_GLOBAL__N_117XdsOverrideHostLbEED2Ev.exit7: ; preds = %36, %38, %42
  call void @_ZN9grpc_core13RefCountedPtrINS_19SubchannelInterfaceEED2Ev(ptr noundef nonnull align 8 dereferenceable(8) %4) #40
  call void @_ZdlPvm(ptr noundef nonnull %6, i64 noundef 96) #43
  resume { ptr, i32 } %37
}